; Function Attrs: nounwind uwtable
define internal void @template_free(ptr noundef %0) #0 {
  %2 = icmp eq ptr %0, null
  br i1 %2, label %4, label %3

3:                                                ; preds = %1
  tail call void @CRYPTO_free(ptr noundef nonnull %0, ptr noundef nonnull @.str.3, i32 noundef 93) #3
  br label %4

4:                                                ; preds = %1, %3
  ret void
}